Certificate:
    Data:
        Version: 1 (0x0)
        Serial Number: 2 (0x2)
    Signature Algorithm: sha256WithRSAEncryption
        Issuer: C=AR, ST=BsAs, O=Epson, CN=WSAA
        Validity
            Not Before: Jan  1 00:00:00 2014 GMT
            Not After : Dec 31 23:59:59 2024 GMT
        Subject: C=AR, ST=UNKNOWN, O=El Boli, OU=UNKNOWN, CN=SilikaFCBC1988F79440F79BE7/serialNumber=CUIT 20352146170
        Subject Public Key Info:
            Public Key Algorithm: rsaEncryption
                Public-Key: (2048 bit)
                Modulus:
                    00:b5:e8:9c:9c:43:1b:85:49:d3:ed:6a:39:f2:ec:
                    00:dd:e9:ca:4e:dc:28:d5:0c:33:4f:37:b4:ac:17:
                    a7:1d:db:e0:dc:b2:8e:61:e5:15:d9:b2:dd:f1:18:
                    0f:64:2e:22:ad:00:c9:50:e9:c7:9b:e9:6d:ac:35:
                    55:6e:60:5e:c3:23:93:a8:0c:5a:48:65:e3:85:c3:
                    2c:ce:7e:88:ac:41:eb:dc:7a:13:63:dd:95:1c:1c:
                    42:f0:00:99:cc:04:cb:8c:81:67:d4:00:e3:be:c3:
                    d6:4b:d5:a9:ad:03:57:e7:2a:60:e8:9f:be:46:14:
                    3c:64:65:23:74:83:55:04:1b:52:c4:cb:7e:0c:1e:
                    4f:77:91:aa:cf:81:db:bc:59:a0:c7:7b:28:4b:81:
                    5e:a3:83:1c:a9:be:d8:a7:88:3d:26:b7:72:5a:3d:
                    e0:04:f6:fa:4f:dc:32:d6:2a:13:09:a0:70:a3:8a:
                    6a:10:51:92:a7:e5:ad:62:ba:41:a3:ec:6a:76:58:
                    07:d4:f3:f9:d5:21:0c:be:92:a5:a8:39:fe:46:b0:
                    e9:1c:b4:76:a1:ec:ad:aa:f8:a9:81:da:37:53:d6:
                    e6:e7:a9:1b:33:dc:0e:b4:96:48:85:59:58:f1:4c:
                    96:19:e3:7b:31:7b:5a:8d:04:b8:98:ce:c4:fc:c1:
                    c5:ad
                Exponent: 65537 (0x10001)
    Signature Algorithm: sha256WithRSAEncryption
         24:b0:e4:9d:d4:57:3e:b3:f7:a0:5c:07:5c:eb:2e:11:18:67:
         61:ef:e4:ea:77:5f:4a:3e:81:97:5d:ca:fb:11:f2:f5:27:3e:
         c8:41:9f:6c:6d:d3:ee:05:85:91:da:a0:38:98:53:9a:6b:93:
         05:f8:c1:55:29:61:17:82:75:2d:2c:9b:94:d0:16:e8:26:1c:
         36:51:82:49:97:8b:ee:fd:f7:ad:dd:32:49:b2:b4:01:ca:72:
         f3:52:0c:2a:75:07:dc:87:09:74:41:b4:f9:29:92:ec:06:72:
         31:46:4b:a5:a1:f3:25:a7:10:d6:40:07:05:2e:77:2c:d5:9b:
         f2:91:e3:3e:60:60:b9:6d:2d:8c:42:ff:f8:45:92:bf:ee:ee:
         97:f4:cc:d7:b3:1e:97:a3:42:7d:a5:52:a9:bd:a4:1e:f2:0d:
         81:1a:e7:f2:51:f2:a2:5d:c5:27:07:5b:7a:0c:81:56:85:ab:
         97:3f:0a:ac:5f:e7:9e:08:18:a9:a3:1b:d8:8f:e7:68:a8:3f:
         af:9b:f5:65:79:fd:fc:5d:fc:88:ed:e3:08:b2:94:51:bc:bb:
         d7:1f:3d:c1:e4:51:cf:18:a5:70:48:3c:d6:72:18:89:89:9b:
         b2:0a:32:e1:97:d4:f9:4b:f6:d0:9d:18:91:61:e9:f7:ed:5b:
         a1:8d:31:7e
-----BEGIN CERTIFICATE-----
MIIDMzCCAhsCAQIwDQYJKoZIhvcNAQELBQAwOzELMAkGA1UEBhMCQVIxDTALBgNV
BAgMBEJzQXMxDjAMBgNVBAoMBUVwc29uMQ0wCwYDVQQDDARXU0FBMB4XDTE0MDEw
MTAwMDAwMFoXDTI0MTIzMTIzNTk1OVowgYMxCzAJBgNVBAYTAkFSMRAwDgYDVQQI
EwdVTktOT1dOMRAwDgYDVQQKEwdFbCBCb2xpMRAwDgYDVQQLEwdVTktOT1dOMSMw
IQYDVQQDExpTaWxpa2FGQ0JDMTk4OEY3OTQ0MEY3OUJFNzEZMBcGA1UEBRMQQ1VJ
VCAyMDM1MjE0NjE3MDCCASIwDQYJKoZIhvcNAQEBBQADggEPADCCAQoCggEBALXo
nJxDG4VJ0+1qOfLsAN3pyk7cKNUMM083tKwXpx3b4NyyjmHlFdmy3fEYD2QuIq0A
yVDpx5vpbaw1VW5gXsMjk6gMWkhl44XDLM5+iKxB69x6E2PdlRwcQvAAmcwEy4yB
Z9QA477D1kvVqa0DV+cqYOifvkYUPGRlI3SDVQQbUsTLfgweT3eRqs+B27xZoMd7
KEuBXqODHKm+2KeIPSa3clo94AT2+k/cMtYqEwmgcKOKahBRkqflrWK6QaPsanZY
B9Tz+dUhDL6Spag5/kaw6Ry0dqHsrar4qYHaN1PW5uepGzPcDrSWSIVZWPFMlhnj
ezF7Wo0EuJjOxPzBxa0CAwEAATANBgkqhkiG9w0BAQsFAAOCAQEAJLDkndRXPrP3
oFwHXOsuERhnYe/k6ndfSj6Bl13K+xHy9Sc+yEGfbG3T7gWFkdqgOJhTmmuTBfjB
VSlhF4J1LSyblNAW6CYcNlGCSZeL7v33rd0ySbK0Acpy81IMKnUH3IcJdEG0+SmS
7AZyMUZLpaHzJacQ1kAHBS53LNWb8pHjPmBguW0tjEL/+EWSv+7ul/TM17Mel6NC
faVSqb2kHvINgRrn8lHyol3FJwdbegyBVoWrlz8KrF/nnggYqaMb2I/naKg/r5v1
ZXn9/F38iO3jCLKUUby71x89weRRzxilcEg81nIYiYmbsgoy4ZfU+Uv20J0YkWHp
9+1boY0xfg==
-----END CERTIFICATE-----
